; Function Attrs: mustprogress nounwind uwtable
define internal void @_ZN12_GLOBAL__N_131VersionedCovMapFuncRecordReaderILN4llvm8coverage13CovMapVersionE0EmLNS1_10endiannessE1EED0Ev(ptr noundef nonnull align 8 dereferenceable(96) initializes((0, 8)) %0) unnamed_addr #0 align 2 {
  store ptr getelementptr inbounds nuw inrange(-16, 32) (i8, ptr @_ZTVN12_GLOBAL__N_131VersionedCovMapFuncRecordReaderILN4llvm8coverage13CovMapVersionE0EmLNS1_10endiannessE1EEE, i64 16), ptr %0, align 8
  %2 = getelementptr inbounds nuw i8, ptr %0, i64 72
  %3 = load ptr, ptr %2, align 8
  %4 = getelementptr inbounds nuw i8, ptr %0, i64 88
  %5 = load i32, ptr %4, align 8
  %6 = zext i32 %5 to i64
  %7 = shl nuw nsw i64 %6, 4
  tail call void @_ZN4llvm17deallocate_bufferEPvmm(ptr noundef %3, i64 noundef %7, i64 noundef 8) #17
  %8 = getelementptr inbounds nuw i8, ptr %0, i64 8
  %9 = load ptr, ptr %8, align 8
  %10 = getelementptr inbounds nuw i8, ptr %0, i64 24
  %11 = load i32, ptr %10, align 8
  %12 = zext i32 %11 to i64
  %13 = shl nuw nsw i64 %12, 4
  tail call void @_ZN4llvm17deallocate_bufferEPvmm(ptr noundef %9, i64 noundef %13, i64 noundef 8) #17
  tail call void @_ZdlPvm(ptr noundef nonnull %0, i64 noundef 96) #20
  ret void
}